; Function Attrs: nounwind uwtable
define range(i32 -1, 1) i32 @H5AC_unsettle_entry_ring(ptr noundef %0) local_unnamed_addr #4 {
  %2 = load i8, ptr @H5AC_init_g, align 1, !tbaa !3, !range !7, !noundef !8
  %3 = trunc nuw i8 %2 to i1
  %4 = load i8, ptr @H5_libterm_g, align 1, !range !7
  %5 = trunc nuw i8 %4 to i1
  %6 = select i1 %3, i1 true, i1 %5
  br i1 %6, label %7, label %.thread, !prof !9

.thread:                                          ; preds = %1
  store i8 1, ptr @H5AC_init_g, align 1, !tbaa !3
  br label %10

7:                                                ; preds = %1
  %8 = xor i1 %5, true
  %9 = select i1 %3, i1 true, i1 %8
  br i1 %9, label %10, label %17, !prof !41

10:                                               ; preds = %.thread, %7
  %11 = tail call i32 @H5C_unsettle_entry_ring(ptr noundef %0) #8
  %12 = icmp slt i32 %11, 0
  br i1 %12, label %13, label %17

13:                                               ; preds = %10
  %14 = load i64, ptr @H5E_CACHE_g, align 8, !tbaa !42
  %15 = load i64, ptr @H5E_CANTREMOVE_g, align 8, !tbaa !42
  %16 = tail call i32 (ptr, ptr, i32, i64, i64, ptr, ...) @H5E_printf_stack(ptr noundef nonnull @.str, ptr noundef nonnull @__func__.H5AC_unsettle_entry_ring, i32 noundef 2484, i64 noundef %14, i64 noundef %15, ptr noundef nonnull @.str.67) #8
  br label %17

17:                                               ; preds = %13, %10, %7
  %.0 = phi i32 [ -1, %13 ], [ 0, %10 ], [ 0, %7 ]
  ret i32 %.0
}